; Function Attrs: mustprogress uwtable
define noundef float @_ZN5faiss17kmeans_clusteringEmmmPKfPf(i64 noundef %0, i64 noundef %1, i64 noundef %2, ptr noundef %3, ptr nocapture noundef writeonly %4) local_unnamed_addr #0 personality ptr @__gxx_personality_v0 {
  %6 = alloca %"struct.faiss::Clustering", align 8
  %7 = alloca %"struct.faiss::IndexFlatL2", align 8
  %8 = trunc i64 %0 to i32
  %9 = trunc i64 %2 to i32
  call void @_ZN5faiss10ClusteringC1Eii(ptr noundef nonnull align 8 dereferenceable(112) %6, i32 noundef %8, i32 noundef %9)
  %10 = mul i64 %1, %0
  %11 = mul i64 %10, %2
  %12 = icmp ugt i64 %11, 1073741824
  %13 = getelementptr inbounds i8, ptr %6, i64 16
  %14 = zext i1 %12 to i8
  store i8 %14, ptr %13, align 8
  invoke void @_ZN5faiss9IndexFlatC2ElNS_10MetricTypeE(ptr noundef nonnull align 8 dereferenceable(72) %7, i64 noundef %0, i32 noundef 1)
          to label %15 unwind label %35

15:                                               ; preds = %5
  store ptr getelementptr inbounds ({ [25 x ptr] }, ptr @_ZTVN5faiss11IndexFlatL2E, i64 0, i32 0, i64 2), ptr %7, align 8
  %16 = getelementptr inbounds i8, ptr %7, i64 72
  call void @llvm.memset.p0.i64(ptr noundef nonnull align 8 dereferenceable(24) %16, i8 0, i64 24, i1 false)
  invoke void @_ZN5faiss10Clustering13train_encodedElPKhPKNS_5IndexERS3_PKf(ptr noundef nonnull align 8 dereferenceable(112) %6, i64 noundef %1, ptr noundef %3, ptr noundef null, ptr noundef nonnull align 8 dereferenceable(36) %7, ptr noundef null)
          to label %_ZN5faiss10Clustering5trainElPKfRNS_5IndexES2_.exit unwind label %37

_ZN5faiss10Clustering5trainElPKfRNS_5IndexES2_.exit: ; preds = %15
  %17 = getelementptr inbounds i8, ptr %6, i64 64
  %18 = load ptr, ptr %17, align 8
  %19 = shl i64 %0, 2
  %20 = mul i64 %19, %2
  call void @llvm.memcpy.p0.p0.i64(ptr align 4 %4, ptr align 4 %18, i64 %20, i1 false)
  %21 = getelementptr inbounds i8, ptr %6, i64 88
  %22 = getelementptr inbounds i8, ptr %6, i64 96
  %23 = load ptr, ptr %22, align 8
  %24 = getelementptr inbounds i8, ptr %23, i64 -40
  %25 = load float, ptr %24, align 8
  store ptr getelementptr inbounds ({ [25 x ptr] }, ptr @_ZTVN5faiss11IndexFlatL2E, i64 0, i32 0, i64 2), ptr %7, align 8
  %26 = load ptr, ptr %16, align 8
  %.not.i.i.i.i = icmp eq ptr %26, null
  br i1 %.not.i.i.i.i, label %_ZNSt6vectorIfSaIfEED2Ev.exit.i, label %27

27:                                               ; preds = %_ZN5faiss10Clustering5trainElPKfRNS_5IndexES2_.exit
  call void @_ZdlPv(ptr noundef nonnull %26) #21
  br label %_ZNSt6vectorIfSaIfEED2Ev.exit.i

_ZNSt6vectorIfSaIfEED2Ev.exit.i:                  ; preds = %27, %_ZN5faiss10Clustering5trainElPKfRNS_5IndexES2_.exit
  store ptr getelementptr inbounds ({ [25 x ptr] }, ptr @_ZTVN5faiss14IndexFlatCodesE, i64 0, i32 0, i64 2), ptr %7, align 8
  %28 = getelementptr inbounds i8, ptr %7, i64 48
  %29 = load ptr, ptr %28, align 8
  %.not.i.i.i.i.i.i = icmp eq ptr %29, null
  br i1 %.not.i.i.i.i.i.i, label %_ZN5faiss11IndexFlatL2D2Ev.exit, label %30

30:                                               ; preds = %_ZNSt6vectorIfSaIfEED2Ev.exit.i
  call void @_ZdlPv(ptr noundef nonnull %29) #21
  br label %_ZN5faiss11IndexFlatL2D2Ev.exit

_ZN5faiss11IndexFlatL2D2Ev.exit:                  ; preds = %_ZNSt6vectorIfSaIfEED2Ev.exit.i, %30
  call void @_ZN5faiss5IndexD2Ev(ptr noundef nonnull align 8 dereferenceable(36) %7) #15
  store ptr getelementptr inbounds ({ [5 x ptr] }, ptr @_ZTVN5faiss10ClusteringE, i64 0, i32 0, i64 2), ptr %6, align 8
  %31 = load ptr, ptr %21, align 8
  %.not.i.i.i.i14 = icmp eq ptr %31, null
  br i1 %.not.i.i.i.i14, label %_ZNSt6vectorIN5faiss24ClusteringIterationStatsESaIS1_EED2Ev.exit.i, label %32

32:                                               ; preds = %_ZN5faiss11IndexFlatL2D2Ev.exit
  call void @_ZdlPv(ptr noundef nonnull %31) #21
  br label %_ZNSt6vectorIN5faiss24ClusteringIterationStatsESaIS1_EED2Ev.exit.i

_ZNSt6vectorIN5faiss24ClusteringIterationStatsESaIS1_EED2Ev.exit.i: ; preds = %32, %_ZN5faiss11IndexFlatL2D2Ev.exit
  %33 = load ptr, ptr %17, align 8
  %.not.i.i.i1.i = icmp eq ptr %33, null
  br i1 %.not.i.i.i1.i, label %_ZN5faiss10ClusteringD2Ev.exit, label %34

34:                                               ; preds = %_ZNSt6vectorIN5faiss24ClusteringIterationStatsESaIS1_EED2Ev.exit.i
  call void @_ZdlPv(ptr noundef nonnull %33) #21
  br label %_ZN5faiss10ClusteringD2Ev.exit

_ZN5faiss10ClusteringD2Ev.exit:                   ; preds = %_ZNSt6vectorIN5faiss24ClusteringIterationStatsESaIS1_EED2Ev.exit.i, %34
  ret float %25

35:                                               ; preds = %5
  %36 = landingpad { ptr, i32 }
          cleanup
  br label %39

37:                                               ; preds = %15
  %38 = landingpad { ptr, i32 }
          cleanup
  call void @_ZN5faiss11IndexFlatL2D2Ev(ptr noundef nonnull align 8 dereferenceable(96) %7) #15
  br label %39

39:                                               ; preds = %37, %35
  %.pn = phi { ptr, i32 } [ %38, %37 ], [ %36, %35 ]
  call void @_ZN5faiss10ClusteringD2Ev(ptr noundef nonnull align 8 dereferenceable(112) %6) #15
  resume { ptr, i32 } %.pn
}